target datalayout = "e-m:e-p270:32:32-p271:32:32-p272:64:64-i64:64-i128:128-f80:128-n8:16:32:64-S128"
target triple = "x86_64-pc-linux-gnu"

%"struct.ue2::ParseMode" = type { i8, i8, i8, i8, i8, i8 }
%"class.ue2::ComponentClass" = type <{ %"class.ue2::Component", i8, %"struct.ue2::ParseMode", i8, i32, i8, [3 x i8] }>
%"class.ue2::Component" = type { ptr, i32, i32 }

; Function Attrs: mustprogress uwtable
define hidden void @_ZN3ue214ComponentClass7addDashEv(ptr noundef nonnull align 8 dereferenceable(29) %0) #0 align 2 {
  %2 = alloca ptr, align 8
  store ptr %0, ptr %2, align 8
  %3 = load ptr, ptr %2, align 8
  %4 = getelementptr inbounds nuw %"class.ue2::ComponentClass", ptr %3, i32 0, i32 3
  %5 = load i8, ptr %4, align 1, !range !5, !noundef !6
  %6 = trunc i8 %5 to i1
  br i1 %6, label %18, label %7

7:                                                ; preds = %1
  %8 = getelementptr inbounds nuw %"class.ue2::ComponentClass", ptr %3, i32 0, i32 4
  %9 = load i32, ptr %8, align 8
  %10 = icmp ne i32 %9, -1
  br i1 %10, label %11, label %13

11:                                               ; preds = %7
  %12 = getelementptr inbounds nuw %"class.ue2::ComponentClass", ptr %3, i32 0, i32 3
  store i8 1, ptr %12, align 1
  br label %17

13:                                               ; preds = %7
  %14 = load ptr, ptr %3, align 8
  %15 = getelementptr inbounds ptr, ptr %14, i64 17
  %16 = load ptr, ptr %15, align 8
  call void %16(ptr noundef nonnull align 8 dereferenceable(29) %3, i32 noundef 45)
  br label %17

17:                                               ; preds = %13, %11
  br label %23

18:                                               ; preds = %1
  %19 = getelementptr inbounds nuw %"class.ue2::ComponentClass", ptr %3, i32 0, i32 3
  store i8 0, ptr %19, align 1
  %20 = load ptr, ptr %3, align 8
  %21 = getelementptr inbounds ptr, ptr %20, i64 19
  %22 = load ptr, ptr %21, align 8
  call void %22(ptr noundef nonnull align 8 dereferenceable(29) %3, i32 noundef 45)
  br label %23

23:                                               ; preds = %18, %17
  ret void
}