; Function Attrs: mustprogress uwtable
define hidden void @_ZN3ue214ComponentClass7addDashEv(ptr noundef nonnull align 8 dereferenceable(29) %0) local_unnamed_addr #0 align 2 {
  %2 = getelementptr inbounds nuw i8, ptr %0, i64 23
  %3 = load i8, ptr %2, align 1, !range !11, !noundef !12
  %4 = trunc nuw i8 %3 to i1
  br i1 %4, label %13, label %5

5:                                                ; preds = %1
  %6 = getelementptr inbounds nuw i8, ptr %0, i64 24
  %7 = load i32, ptr %6, align 8
  %.not = icmp eq i32 %7, -1
  br i1 %.not, label %9, label %8

8:                                                ; preds = %5
  store i8 1, ptr %2, align 1
  br label %17

9:                                                ; preds = %5
  %10 = load ptr, ptr %0, align 8
  %11 = getelementptr inbounds nuw i8, ptr %10, i64 136
  %12 = load ptr, ptr %11, align 8
  tail call void %12(ptr noundef nonnull align 8 dereferenceable(29) %0, i32 noundef 45)
  br label %17

13:                                               ; preds = %1
  store i8 0, ptr %2, align 1
  %14 = load ptr, ptr %0, align 8
  %15 = getelementptr inbounds nuw i8, ptr %14, i64 152
  %16 = load ptr, ptr %15, align 8
  tail call void %16(ptr noundef nonnull align 8 dereferenceable(29) %0, i32 noundef 45)
  br label %17

17:                                               ; preds = %8, %9, %13
  ret void
}